target datalayout = "e-m:e-p270:32:32-p271:32:32-p272:64:64-i64:64-i128:128-f80:128-n8:16:32:64-S128"
target triple = "x86_64-pc-linux-gnu"

@hf_pvfs_fh_length = internal global i32 0, align 4
@hf_pvfs_fh_hash = internal global i32 0, align 4
@hf_fhandle_data = internal global i32 0, align 4
@ett_pvfs_fh = internal global i32 0, align 4

; Function Attrs: null_pointer_is_valid sspstrong uwtable
define internal void @dissect_fhandle_data_unknown(ptr noundef %0, i32 noundef %1, ptr noundef %2) #0 {
  %4 = alloca ptr, align 8
  %5 = alloca i32, align 4
  %6 = alloca ptr, align 8
  %7 = alloca i32, align 4
  store ptr %0, ptr %4, align 8
  store i32 %1, ptr %5, align 4
  store ptr %2, ptr %6, align 8
  call void @llvm.lifetime.start.p0(i64 4, ptr %7) #10
  store i32 8, ptr %7, align 4
  %8 = load ptr, ptr %6, align 8
  %9 = load i32, ptr @hf_fhandle_data, align 4
  %10 = load ptr, ptr %4, align 8
  %11 = load i32, ptr %5, align 4
  %12 = load i32, ptr %7, align 4
  %13 = call ptr @proto_tree_add_item(ptr noundef %8, i32 noundef %9, ptr noundef %10, i32 noundef %11, i32 noundef %12, i32 noundef 0)
  call void @llvm.lifetime.end.p0(i64 4, ptr %7) #10
  ret void
}

; Function Attrs: null_pointer_is_valid sspstrong uwtable
define internal void @dissect_fhandle_data(ptr noundef %0, i32 noundef %1, ptr noundef %2, ptr noundef %3, ptr noundef %4) #0 {
  %6 = alloca ptr, align 8
  %7 = alloca i32, align 4
  %8 = alloca ptr, align 8
  %9 = alloca ptr, align 8
  %10 = alloca ptr, align 8
  %11 = alloca i32, align 4
  %12 = alloca i32, align 4
  %13 = alloca i32, align 4
  store ptr %0, ptr %6, align 8
  store i32 %1, ptr %7, align 4
  store ptr %2, ptr %8, align 8
  store ptr %3, ptr %9, align 8
  store ptr %4, ptr %10, align 8
  call void @llvm.lifetime.start.p0(i64 4, ptr %11) #10
  call void @llvm.lifetime.start.p0(i64 4, ptr %12) #10
  %14 = load ptr, ptr %6, align 8
  %15 = load i32, ptr %7, align 4
  %16 = call zeroext i1 @tvb_bytes_exist(ptr noundef %14, i32 noundef %15, i32 noundef 8)
  br i1 %16, label %18, label %17

17:                                               ; preds = %5
  br label %50

18:                                               ; preds = %5
  store i32 0, ptr %11, align 4
  store i32 0, ptr %12, align 4
  br label %19

19:                                               ; preds = %34, %18
  %20 = load i32, ptr %12, align 4
  %21 = icmp ult i32 %20, 5
  br i1 %21, label %22, label %37

22:                                               ; preds = %19
  call void @llvm.lifetime.start.p0(i64 4, ptr %13) #10
  %23 = load ptr, ptr %6, align 8
  %24 = load i32, ptr %7, align 4
  %25 = load i32, ptr %12, align 4
  %26 = add i32 %24, %25
  %27 = call i32 @tvb_get_ntohl(ptr noundef %23, i32 noundef %26)
  store i32 %27, ptr %13, align 4
  %28 = load i32, ptr %13, align 4
  %29 = load i32, ptr %11, align 4
  %30 = xor i32 %29, %28
  store i32 %30, ptr %11, align 4
  %31 = load i32, ptr %13, align 4
  %32 = load i32, ptr %11, align 4
  %33 = add i32 %32, %31
  store i32 %33, ptr %11, align 4
  call void @llvm.lifetime.end.p0(i64 4, ptr %13) #10
  br label %34

34:                                               ; preds = %22
  %35 = load i32, ptr %12, align 4
  %36 = add i32 %35, 4
  store i32 %36, ptr %12, align 4
  br label %19, !llvm.loop !12

37:                                               ; preds = %19
  %38 = load ptr, ptr %9, align 8
  %39 = load i32, ptr @hf_pvfs_fh_hash, align 4
  %40 = load ptr, ptr %6, align 8
  %41 = load i32, ptr %7, align 4
  %42 = load i32, ptr %11, align 4
  %43 = call ptr @proto_tree_add_uint(ptr noundef %38, i32 noundef %39, ptr noundef %40, i32 noundef %41, i32 noundef 8, i32 noundef %42)
  %44 = load ptr, ptr %10, align 8
  %45 = icmp ne ptr %44, null
  br i1 %45, label %46, label %49

46:                                               ; preds = %37
  %47 = load i32, ptr %11, align 4
  %48 = load ptr, ptr %10, align 8
  store i32 %47, ptr %48, align 4
  br label %49

49:                                               ; preds = %46, %37
  br label %50

50:                                               ; preds = %49, %17
  %51 = load ptr, ptr %6, align 8
  %52 = load i32, ptr %7, align 4
  %53 = load ptr, ptr %9, align 8
  call void @dissect_fhandle_data_unknown(ptr noundef %51, i32 noundef %52, ptr noundef %53)
  call void @llvm.lifetime.end.p0(i64 4, ptr %12) #10
  call void @llvm.lifetime.end.p0(i64 4, ptr %11) #10
  ret void
}

; Function Attrs: null_pointer_is_valid sspstrong uwtable
define internal i32 @dissect_pvfs_fh(ptr noundef %0, i32 noundef %1, ptr noundef %2, ptr noundef %3, ptr noundef %4, ptr noundef %5) #0 {
  %7 = alloca ptr, align 8
  %8 = alloca i32, align 4
  %9 = alloca ptr, align 8
  %10 = alloca ptr, align 8
  %11 = alloca ptr, align 8
  %12 = alloca ptr, align 8
  %13 = alloca ptr, align 8
  store ptr %0, ptr %7, align 8
  store i32 %1, ptr %8, align 4
  store ptr %2, ptr %9, align 8
  store ptr %3, ptr %10, align 8
  store ptr %4, ptr %11, align 8
  store ptr %5, ptr %12, align 8
  call void @llvm.lifetime.start.p0(i64 8, ptr %13) #10
  %14 = load ptr, ptr %10, align 8
  %15 = load ptr, ptr %7, align 8
  %16 = load i32, ptr %8, align 4
  %17 = load i32, ptr @ett_pvfs_fh, align 4
  %18 = load ptr, ptr %11, align 8
  %19 = call ptr @proto_tree_add_subtree(ptr noundef %14, ptr noundef %15, i32 noundef %16, i32 noundef 8, i32 noundef %17, ptr noundef null, ptr noundef %18)
  store ptr %19, ptr %13, align 8
  %20 = load ptr, ptr %13, align 8
  %21 = load i32, ptr @hf_pvfs_fh_length, align 4
  %22 = load ptr, ptr %7, align 8
  %23 = load i32, ptr %8, align 4
  %24 = call ptr @proto_tree_add_uint(ptr noundef %20, i32 noundef %21, ptr noundef %22, i32 noundef %23, i32 noundef 0, i32 noundef 8)
  %25 = load ptr, ptr %7, align 8
  %26 = load i32, ptr %8, align 4
  %27 = load ptr, ptr %9, align 8
  %28 = load ptr, ptr %13, align 8
  %29 = load ptr, ptr %12, align 8
  call void @dissect_fhandle_data(ptr noundef %25, i32 noundef %26, ptr noundef %27, ptr noundef %28, ptr noundef %29)
  %30 = load i32, ptr %8, align 4
  %31 = add i32 %30, 8
  store i32 %31, ptr %8, align 4
  %32 = load i32, ptr %8, align 4
  call void @llvm.lifetime.end.p0(i64 8, ptr %13) #10
  ret i32 %32
}