; Function Attrs: null_pointer_is_valid sspstrong uwtable
define internal fastcc noundef i32 @dissect_pvfs_fh(ptr noundef %0, i32 noundef %1, ptr noundef %2, ptr noundef %3) unnamed_addr #0 {
  %5 = load i32, ptr @ett_pvfs_fh, align 4
  %6 = tail call ptr @proto_tree_add_subtree(ptr noundef %2, ptr noundef %0, i32 noundef %1, i32 noundef 8, i32 noundef %5, ptr noundef null, ptr noundef %3)
  %7 = load i32, ptr @hf_pvfs_fh_length, align 4
  %8 = tail call ptr @proto_tree_add_uint(ptr noundef %6, i32 noundef %7, ptr noundef %0, i32 noundef %1, i32 noundef 0, i32 noundef 8)
  %9 = tail call zeroext i1 @tvb_bytes_exist(ptr noundef %0, i32 noundef %1, i32 noundef 8)
  br i1 %9, label %.preheader.i, label %dissect_fhandle_data.exit

.preheader.i:                                     ; preds = %4, %.preheader.i
  %.02.i = phi i32 [ %14, %.preheader.i ], [ 0, %4 ]
  %10 = phi i1 [ false, %.preheader.i ], [ true, %4 ]
  %.0201.i = phi i32 [ 4, %.preheader.i ], [ 0, %4 ]
  %11 = add i32 %.0201.i, %1
  %12 = tail call i32 @tvb_get_ntohl(ptr noundef %0, i32 noundef %11)
  %13 = xor i32 %12, %.02.i
  %14 = add i32 %13, %12
  br i1 %10, label %.preheader.i, label %15, !llvm.loop !23

15:                                               ; preds = %.preheader.i
  %16 = load i32, ptr @hf_pvfs_fh_hash, align 4
  %17 = tail call ptr @proto_tree_add_uint(ptr noundef %6, i32 noundef %16, ptr noundef %0, i32 noundef %1, i32 noundef 8, i32 noundef %14)
  br label %dissect_fhandle_data.exit

dissect_fhandle_data.exit:                        ; preds = %4, %15
  %18 = load i32, ptr @hf_fhandle_data, align 4
  %19 = tail call ptr @proto_tree_add_item(ptr noundef %6, i32 noundef %18, ptr noundef %0, i32 noundef %1, i32 noundef 8, i32 noundef 0)
  %20 = add i32 %1, 8
  ret i32 %20
}